target datalayout = "e-m:e-p270:32:32-p271:32:32-p272:64:64-i64:64-i128:128-f80:128-n8:16:32:64-S128"
target triple = "x86_64-pc-linux-gnu"

%"class.llvm::TargetRegisterClass" = type { ptr, ptr, ptr, %"struct.llvm::LaneBitmask", i8, i8, i8, i8, i8, ptr, ptr }
%"struct.llvm::LaneBitmask" = type { i64 }
%"class.llvm::Register" = type { i32 }
%"class.llvm::DenseMap" = type <{ ptr, i32, i32, i32, [4 x i8] }>
%"class.llvm::MachineInstrBundleIterator" = type { %"class.llvm::ilist_iterator" }
%"class.llvm::ilist_iterator" = type { ptr }
%"class.llvm::FastISel" = type { ptr, %"class.llvm::DenseMap", ptr, ptr, ptr, ptr, ptr, %"class.llvm::MIMetadata", ptr, ptr, ptr, ptr, ptr, ptr, i8, ptr, ptr, %"class.llvm::MachineInstrBundleIterator" }
%"class.llvm::MIMetadata" = type { %"class.llvm::DebugLoc", ptr, ptr }
%"class.llvm::DebugLoc" = type { %"class.llvm::TypedTrackingMDRef" }
%"class.llvm::TypedTrackingMDRef" = type { %"class.llvm::TrackingMDRef" }
%"class.llvm::TrackingMDRef" = type { ptr }
%"class.llvm::Value" = type { i8, i8, i16, i32, ptr, ptr }
%"struct.llvm::EVT" = type { %"class.llvm::MVT", ptr }
%"class.llvm::MVT" = type { i16 }
%"class.llvm::Use" = type { ptr, ptr, ptr, ptr }

@_ZN4llvm7AArch6413GPR64RegClassE = external global %"class.llvm::TargetRegisterClass", align 8
@_ZN4llvm7AArch6413GPR32RegClassE = external global %"class.llvm::TargetRegisterClass", align 8

; Function Attrs: mustprogress nounwind uwtable
define linkonce_odr hidden noundef ptr @_ZNK4llvm4User20getIntrusiveOperandsEv(ptr noundef nonnull align 8 dereferenceable(24) %0) #0 comdat align 2 {
  %2 = alloca ptr, align 8
  store ptr %0, ptr %2, align 8
  %3 = load ptr, ptr %2, align 8
  %4 = getelementptr inbounds nuw %"class.llvm::Value", ptr %3, i32 0, i32 3
  %5 = load i32, ptr %4, align 4
  %6 = and i32 %5, 134217727
  %7 = sext i32 %6 to i64
  %8 = sub i64 0, %7
  %9 = getelementptr inbounds %"class.llvm::Use", ptr %3, i64 %8
  ret ptr %9
}

; Function Attrs: mustprogress nounwind uwtable
define linkonce_odr hidden noundef ptr @_ZNK4llvm4User18getHungOffOperandsEv(ptr noundef nonnull align 8 dereferenceable(24) %0) #0 comdat align 2 {
  %2 = alloca ptr, align 8
  store ptr %0, ptr %2, align 8
  %3 = load ptr, ptr %2, align 8
  %4 = getelementptr inbounds ptr, ptr %3, i64 -1
  %5 = load ptr, ptr %4, align 8
  ret ptr %5
}

; Function Attrs: mustprogress nounwind uwtable
define linkonce_odr hidden noundef ptr @_ZNK4llvm3UsecvPNS_5ValueEEv(ptr noundef nonnull align 8 dereferenceable(32) %0) #0 comdat align 2 {
  %2 = alloca ptr, align 8
  store ptr %0, ptr %2, align 8
  %3 = load ptr, ptr %2, align 8
  %4 = getelementptr inbounds nuw %"class.llvm::Use", ptr %3, i32 0, i32 0
  %5 = load ptr, ptr %4, align 8
  ret ptr %5
}

; Function Attrs: mustprogress nounwind uwtable
define linkonce_odr hidden noundef ptr @_ZNK4llvm4User14getOperandListEv(ptr noundef nonnull align 8 dereferenceable(24) %0) #0 comdat align 2 {
  %2 = alloca ptr, align 8
  store ptr %0, ptr %2, align 8
  %3 = load ptr, ptr %2, align 8
  %4 = getelementptr inbounds nuw %"class.llvm::Value", ptr %3, i32 0, i32 3
  %5 = load i32, ptr %4, align 4
  %6 = lshr i32 %5, 30
  %7 = and i32 %6, 1
  %8 = icmp ne i32 %7, 0
  br i1 %8, label %9, label %11

9:                                                ; preds = %1
  %10 = call noundef ptr @_ZNK4llvm4User18getHungOffOperandsEv(ptr noundef nonnull align 8 dereferenceable(24) %3)
  br label %13

11:                                               ; preds = %1
  %12 = call noundef ptr @_ZNK4llvm4User20getIntrusiveOperandsEv(ptr noundef nonnull align 8 dereferenceable(24) %3)
  br label %13

13:                                               ; preds = %11, %9
  %14 = phi ptr [ %10, %9 ], [ %12, %11 ]
  ret ptr %14
}

; Function Attrs: mustprogress nounwind uwtable
define linkonce_odr hidden noundef i32 @_ZNK4llvm8RegistercvjEv(ptr noundef nonnull align 4 dereferenceable(4) %0) #0 comdat align 2 {
  %2 = alloca ptr, align 8
  store ptr %0, ptr %2, align 8
  %3 = load ptr, ptr %2, align 8
  %4 = getelementptr inbounds nuw %"class.llvm::Register", ptr %3, i32 0, i32 0
  %5 = load i32, ptr %4, align 4
  ret i32 %5
}

; Function Attrs: mustprogress nounwind uwtable
define linkonce_odr hidden noundef ptr @_ZNK4llvm4User10getOperandEj(ptr noundef nonnull align 8 dereferenceable(24) %0, i32 noundef %1) #0 comdat align 2 {
  %3 = alloca ptr, align 8
  %4 = alloca i32, align 4
  store ptr %0, ptr %3, align 8
  store i32 %1, ptr %4, align 4
  %5 = load ptr, ptr %3, align 8
  %6 = call noundef ptr @_ZNK4llvm4User14getOperandListEv(ptr noundef nonnull align 8 dereferenceable(24) %5)
  %7 = load i32, ptr %4, align 4
  %8 = zext i32 %7 to i64
  %9 = getelementptr inbounds %"class.llvm::Use", ptr %6, i64 %8
  %10 = call noundef ptr @_ZNK4llvm3UsecvPNS_5ValueEEv(ptr noundef nonnull align 8 dereferenceable(32) %9)
  ret ptr %10
}

; Function Attrs: mustprogress nounwind uwtable
define linkonce_odr hidden noundef zeroext i1 @_ZNK4llvm3MVTeqERKS0_(ptr noundef nonnull align 2 dereferenceable(2) %0, ptr noundef nonnull align 2 dereferenceable(2) %1) #0 comdat align 2 {
  %3 = alloca ptr, align 8
  %4 = alloca ptr, align 8
  store ptr %0, ptr %3, align 8
  store ptr %1, ptr %4, align 8
  %5 = load ptr, ptr %3, align 8
  %6 = getelementptr inbounds nuw %"class.llvm::MVT", ptr %5, i32 0, i32 0
  %7 = load i16, ptr %6, align 2
  %8 = zext i16 %7 to i32
  %9 = load ptr, ptr %4, align 8
  %10 = getelementptr inbounds nuw %"class.llvm::MVT", ptr %9, i32 0, i32 0
  %11 = load i16, ptr %10, align 2
  %12 = zext i16 %11 to i32
  %13 = icmp eq i32 %8, %12
  ret i1 %13
}

; Function Attrs: mustprogress nounwind uwtable
define linkonce_odr hidden noundef zeroext i1 @_ZNK4llvm3MVTneERKS0_(ptr noundef nonnull align 2 dereferenceable(2) %0, ptr noundef nonnull align 2 dereferenceable(2) %1) #0 comdat align 2 {
  %3 = alloca ptr, align 8
  %4 = alloca ptr, align 8
  store ptr %0, ptr %3, align 8
  store ptr %1, ptr %4, align 8
  %5 = load ptr, ptr %3, align 8
  %6 = getelementptr inbounds nuw %"class.llvm::MVT", ptr %5, i32 0, i32 0
  %7 = load i16, ptr %6, align 2
  %8 = zext i16 %7 to i32
  %9 = load ptr, ptr %4, align 8
  %10 = getelementptr inbounds nuw %"class.llvm::MVT", ptr %9, i32 0, i32 0
  %11 = load i16, ptr %10, align 2
  %12 = zext i16 %11 to i32
  %13 = icmp ne i32 %8, %12
  ret i1 %13
}

; Function Attrs: mustprogress nounwind uwtable
define linkonce_odr hidden void @_ZN4llvm3MVTC2ENS0_15SimpleValueTypeE(ptr noundef nonnull align 2 dereferenceable(2) %0, i16 noundef zeroext %1) unnamed_addr #0 comdat align 2 {
  %3 = alloca ptr, align 8
  %4 = alloca i16, align 2
  store ptr %0, ptr %3, align 8
  store i16 %1, ptr %4, align 2
  %5 = load ptr, ptr %3, align 8
  %6 = getelementptr inbounds nuw %"class.llvm::MVT", ptr %5, i32 0, i32 0
  %7 = load i16, ptr %4, align 2
  store i16 %7, ptr %6, align 2
  ret void
}

; Function Attrs: mustprogress nounwind uwtable
define linkonce_odr hidden i16 @_ZNK4llvm3EVT11getSimpleVTEv(ptr noundef nonnull align 8 dereferenceable(16) %0) #0 comdat align 2 {
  %2 = alloca %"class.llvm::MVT", align 2
  %3 = alloca ptr, align 8
  store ptr %0, ptr %3, align 8
  %4 = load ptr, ptr %3, align 8
  %5 = getelementptr inbounds nuw %"struct.llvm::EVT", ptr %4, i32 0, i32 0
  call void @llvm.memcpy.p0.p0.i64(ptr align 2 %2, ptr align 8 %5, i64 2, i1 false)
  %6 = getelementptr inbounds nuw %"class.llvm::MVT", ptr %2, i32 0, i32 0
  %7 = load i16, ptr %6, align 2
  ret i16 %7
}

; Function Attrs: mustprogress nounwind uwtable
define linkonce_odr hidden noundef zeroext i1 @_ZNK4llvm3EVT8isSimpleEv(ptr noundef nonnull align 8 dereferenceable(16) %0) #0 comdat align 2 {
  %2 = alloca ptr, align 8
  store ptr %0, ptr %2, align 8
  %3 = load ptr, ptr %2, align 8
  %4 = getelementptr inbounds nuw %"struct.llvm::EVT", ptr %3, i32 0, i32 0
  %5 = getelementptr inbounds nuw %"class.llvm::MVT", ptr %4, i32 0, i32 0
  %6 = load i16, ptr %5, align 8
  %7 = zext i16 %6 to i32
  %8 = icmp ne i32 %7, 0
  ret i1 %8
}

; Function Attrs: mustprogress nounwind uwtable
define linkonce_odr hidden noundef ptr @_ZNK4llvm5Value7getTypeEv(ptr noundef nonnull align 8 dereferenceable(24) %0) #0 comdat align 2 {
  %2 = alloca ptr, align 8
  store ptr %0, ptr %2, align 8
  %3 = load ptr, ptr %2, align 8
  %4 = getelementptr inbounds nuw %"class.llvm::Value", ptr %3, i32 0, i32 4
  %5 = load ptr, ptr %4, align 8
  ret ptr %5
}

; Function Attrs: mustprogress nounwind uwtable
define internal noundef zeroext i1 @_ZN12_GLOBAL__N_115AArch64FastISel9selectRemEPKN4llvm11InstructionEj(ptr noundef nonnull align 8 dereferenceable(192) %0, ptr noundef %1, i32 noundef %2) #0 align 2 {
  %4 = alloca i1, align 1
  %5 = alloca ptr, align 8
  %6 = alloca ptr, align 8
  %7 = alloca i32, align 4
  %8 = alloca %"struct.llvm::EVT", align 8
  %9 = alloca %"class.llvm::MVT", align 2
  %10 = alloca %"class.llvm::MVT", align 2
  %11 = alloca %"class.llvm::MVT", align 2
  %12 = alloca i32, align 4
  %13 = alloca i8, align 1
  %14 = alloca %"class.llvm::MVT", align 2
  %15 = alloca i32, align 4
  %16 = alloca %"class.llvm::Register", align 4
  %17 = alloca %"class.llvm::Register", align 4
  %18 = alloca ptr, align 8
  %19 = alloca %"class.llvm::MVT", align 2
  %20 = alloca %"class.llvm::Register", align 4
  %21 = alloca %"class.llvm::Register", align 4
  %22 = alloca %"class.llvm::Register", align 4
  store ptr %0, ptr %5, align 8
  store ptr %1, ptr %6, align 8
  store i32 %2, ptr %7, align 4
  %23 = load ptr, ptr %5, align 8
  %24 = getelementptr inbounds nuw %"class.llvm::FastISel", ptr %23, i32 0, i32 11
  %25 = load ptr, ptr %24, align 8
  %26 = getelementptr inbounds nuw %"class.llvm::FastISel", ptr %23, i32 0, i32 9
  %27 = load ptr, ptr %26, align 8
  %28 = load ptr, ptr %6, align 8
  %29 = call noundef ptr @_ZNK4llvm5Value7getTypeEv(ptr noundef nonnull align 8 dereferenceable(24) %28)
  %30 = call { i16, ptr } @_ZNK4llvm18TargetLoweringBase12getValueTypeERKNS_10DataLayoutEPNS_4TypeEb(ptr noundef nonnull align 8 dereferenceable(408123) %25, ptr noundef nonnull align 8 dereferenceable(512) %27, ptr noundef %29, i1 noundef zeroext true)
  %31 = getelementptr inbounds nuw { i16, ptr }, ptr %8, i32 0, i32 0
  %32 = extractvalue { i16, ptr } %30, 0
  store i16 %32, ptr %31, align 8
  %33 = getelementptr inbounds nuw { i16, ptr }, ptr %8, i32 0, i32 1
  %34 = extractvalue { i16, ptr } %30, 1
  store ptr %34, ptr %33, align 8
  %35 = call noundef zeroext i1 @_ZNK4llvm3EVT8isSimpleEv(ptr noundef nonnull align 8 dereferenceable(16) %8)
  br i1 %35, label %37, label %36

36:                                               ; preds = %3
  store i1 false, ptr %4, align 1
  br label %97

37:                                               ; preds = %3
  %38 = call i16 @_ZNK4llvm3EVT11getSimpleVTEv(ptr noundef nonnull align 8 dereferenceable(16) %8)
  %39 = getelementptr inbounds nuw %"class.llvm::MVT", ptr %9, i32 0, i32 0
  store i16 %38, ptr %39, align 2
  call void @_ZN4llvm3MVTC2ENS0_15SimpleValueTypeE(ptr noundef nonnull align 2 dereferenceable(2) %10, i16 noundef zeroext 8)
  %40 = call noundef zeroext i1 @_ZNK4llvm3MVTneERKS0_(ptr noundef nonnull align 2 dereferenceable(2) %9, ptr noundef nonnull align 2 dereferenceable(2) %10)
  br i1 %40, label %41, label %43

41:                                               ; preds = %37
  call void @_ZN4llvm3MVTC2ENS0_15SimpleValueTypeE(ptr noundef nonnull align 2 dereferenceable(2) %11, i16 noundef zeroext 7)
  %42 = call noundef zeroext i1 @_ZNK4llvm3MVTneERKS0_(ptr noundef nonnull align 2 dereferenceable(2) %9, ptr noundef nonnull align 2 dereferenceable(2) %11)
  br label %43

43:                                               ; preds = %41, %37
  %44 = phi i1 [ false, %37 ], [ %42, %41 ]
  br i1 %44, label %45, label %46

45:                                               ; preds = %43
  store i1 false, ptr %4, align 1
  br label %97

46:                                               ; preds = %43
  call void @_ZN4llvm3MVTC2ENS0_15SimpleValueTypeE(ptr noundef nonnull align 2 dereferenceable(2) %14, i16 noundef zeroext 8)
  %47 = call noundef zeroext i1 @_ZNK4llvm3MVTeqERKS0_(ptr noundef nonnull align 2 dereferenceable(2) %9, ptr noundef nonnull align 2 dereferenceable(2) %14)
  %48 = zext i1 %47 to i8
  store i8 %48, ptr %13, align 1
  %49 = load i32, ptr %7, align 4
  switch i32 %49, label %50 [
    i32 61, label %51
    i32 62, label %55
  ]

50:                                               ; preds = %46
  store i1 false, ptr %4, align 1
  br label %97

51:                                               ; preds = %46
  %52 = load i8, ptr %13, align 1
  %53 = trunc i8 %52 to i1
  %54 = select i1 %53, i32 5327, i32 5326
  store i32 %54, ptr %12, align 4
  br label %59

55:                                               ; preds = %46
  %56 = load i8, ptr %13, align 1
  %57 = trunc i8 %56 to i1
  %58 = select i1 %57, i32 7202, i32 7201
  store i32 %58, ptr %12, align 4
  br label %59

59:                                               ; preds = %55, %51
  %60 = load i8, ptr %13, align 1
  %61 = trunc i8 %60 to i1
  %62 = select i1 %61, i32 4806, i32 4805
  store i32 %62, ptr %15, align 4
  %63 = load ptr, ptr %6, align 8
  %64 = call noundef ptr @_ZNK4llvm4User10getOperandEj(ptr noundef nonnull align 8 dereferenceable(24) %63, i32 noundef 0)
  %65 = call i32 @_ZN4llvm8FastISel14getRegForValueEPKNS_5ValueE(ptr noundef nonnull align 8 dereferenceable(176) %23, ptr noundef %64)
  %66 = getelementptr inbounds nuw %"class.llvm::Register", ptr %16, i32 0, i32 0
  store i32 %65, ptr %66, align 4
  %67 = call noundef i32 @_ZNK4llvm8RegistercvjEv(ptr noundef nonnull align 4 dereferenceable(4) %16)
  %68 = icmp ne i32 %67, 0
  br i1 %68, label %70, label %69

69:                                               ; preds = %59
  store i1 false, ptr %4, align 1
  br label %97

70:                                               ; preds = %59
  %71 = load ptr, ptr %6, align 8
  %72 = call noundef ptr @_ZNK4llvm4User10getOperandEj(ptr noundef nonnull align 8 dereferenceable(24) %71, i32 noundef 1)
  %73 = call i32 @_ZN4llvm8FastISel14getRegForValueEPKNS_5ValueE(ptr noundef nonnull align 8 dereferenceable(176) %23, ptr noundef %72)
  %74 = getelementptr inbounds nuw %"class.llvm::Register", ptr %17, i32 0, i32 0
  store i32 %73, ptr %74, align 4
  %75 = call noundef i32 @_ZNK4llvm8RegistercvjEv(ptr noundef nonnull align 4 dereferenceable(4) %17)
  %76 = icmp ne i32 %75, 0
  br i1 %76, label %78, label %77

77:                                               ; preds = %70
  store i1 false, ptr %4, align 1
  br label %97

78:                                               ; preds = %70
  call void @_ZN4llvm3MVTC2ENS0_15SimpleValueTypeE(ptr noundef nonnull align 2 dereferenceable(2) %19, i16 noundef zeroext 8)
  %79 = call noundef zeroext i1 @_ZNK4llvm3MVTeqERKS0_(ptr noundef nonnull align 2 dereferenceable(2) %9, ptr noundef nonnull align 2 dereferenceable(2) %19)
  %80 = select i1 %79, ptr @_ZN4llvm7AArch6413GPR64RegClassE, ptr @_ZN4llvm7AArch6413GPR32RegClassE
  store ptr %80, ptr %18, align 8
  %81 = load i32, ptr %12, align 4
  %82 = load ptr, ptr %18, align 8
  %83 = call noundef i32 @_ZNK4llvm8RegistercvjEv(ptr noundef nonnull align 4 dereferenceable(4) %16)
  %84 = call noundef i32 @_ZNK4llvm8RegistercvjEv(ptr noundef nonnull align 4 dereferenceable(4) %17)
  %85 = call i32 @_ZN4llvm8FastISel15fastEmitInst_rrEjPKNS_19TargetRegisterClassEjj(ptr noundef nonnull align 8 dereferenceable(176) %23, i32 noundef %81, ptr noundef %82, i32 noundef %83, i32 noundef %84)
  %86 = getelementptr inbounds nuw %"class.llvm::Register", ptr %20, i32 0, i32 0
  store i32 %85, ptr %86, align 4
  %87 = load i32, ptr %15, align 4
  %88 = load ptr, ptr %18, align 8
  %89 = call noundef i32 @_ZNK4llvm8RegistercvjEv(ptr noundef nonnull align 4 dereferenceable(4) %20)
  %90 = call noundef i32 @_ZNK4llvm8RegistercvjEv(ptr noundef nonnull align 4 dereferenceable(4) %17)
  %91 = call noundef i32 @_ZNK4llvm8RegistercvjEv(ptr noundef nonnull align 4 dereferenceable(4) %16)
  %92 = call i32 @_ZN4llvm8FastISel16fastEmitInst_rrrEjPKNS_19TargetRegisterClassEjjj(ptr noundef nonnull align 8 dereferenceable(176) %23, i32 noundef %87, ptr noundef %88, i32 noundef %89, i32 noundef %90, i32 noundef %91)
  %93 = getelementptr inbounds nuw %"class.llvm::Register", ptr %21, i32 0, i32 0
  store i32 %92, ptr %93, align 4
  %94 = load ptr, ptr %6, align 8
  call void @llvm.memcpy.p0.p0.i64(ptr align 4 %22, ptr align 4 %21, i64 4, i1 false)
  %95 = getelementptr inbounds nuw %"class.llvm::Register", ptr %22, i32 0, i32 0
  %96 = load i32, ptr %95, align 4
  call void @_ZN4llvm8FastISel14updateValueMapEPKNS_5ValueENS_8RegisterEj(ptr noundef nonnull align 8 dereferenceable(176) %23, ptr noundef %94, i32 %96, i32 noundef 1)
  store i1 true, ptr %4, align 1
  br label %97

97:                                               ; preds = %78, %77, %69, %50, %45, %36
  %98 = load i1, ptr %4, align 1
  ret i1 %98
}