; Function Attrs: mustprogress nounwind uwtable
define internal fastcc noundef zeroext i1 @_ZN12_GLOBAL__N_115AArch64FastISel9selectRemEPKN4llvm11InstructionEj(ptr noundef nonnull align 8 dereferenceable(192) %0, ptr noundef %1, i32 noundef range(i32 61, 63) %2) unnamed_addr #0 align 2 {
  %4 = getelementptr inbounds nuw i8, ptr %0, i64 120
  %5 = load ptr, ptr %4, align 8
  %6 = getelementptr inbounds nuw i8, ptr %0, i64 104
  %7 = load ptr, ptr %6, align 8
  %8 = getelementptr inbounds nuw i8, ptr %1, i64 8
  %9 = load ptr, ptr %8, align 8
  %10 = tail call { i16, ptr } @_ZNK4llvm18TargetLoweringBase12getValueTypeERKNS_10DataLayoutEPNS_4TypeEb(ptr noundef nonnull align 8 dereferenceable(408123) %5, ptr noundef nonnull align 8 dereferenceable(512) %7, ptr noundef %9, i1 noundef zeroext true)
  %11 = extractvalue { i16, ptr } %10, 0
  %.off34 = add i16 %11, -7
  %switch35 = icmp ult i16 %.off34, 2
  br i1 %switch35, label %.critedge, label %49

.critedge:                                        ; preds = %3
  %12 = icmp eq i16 %11, 8
  %switch = icmp eq i32 %2, 61
  %13 = select i1 %12, i32 7202, i32 7201
  %14 = select i1 %12, i32 5327, i32 5326
  %.014 = select i1 %switch, i32 %14, i32 %13
  %15 = select i1 %12, i32 4806, i32 4805
  %16 = getelementptr inbounds nuw i8, ptr %1, i64 4
  %17 = load i32, ptr %16, align 4
  %18 = and i32 %17, 1073741824
  %.not.i.i = icmp eq i32 %18, 0
  br i1 %.not.i.i, label %22, label %19

19:                                               ; preds = %.critedge
  %20 = getelementptr inbounds i8, ptr %1, i64 -8
  %21 = load ptr, ptr %20, align 8
  br label %_ZNK4llvm4User10getOperandEj.exit

22:                                               ; preds = %.critedge
  %23 = and i32 %17, 134217727
  %24 = zext nneg i32 %23 to i64
  %25 = sub nsw i64 0, %24
  %26 = getelementptr inbounds %"class.llvm::Use", ptr %1, i64 %25
  br label %_ZNK4llvm4User10getOperandEj.exit

_ZNK4llvm4User10getOperandEj.exit:                ; preds = %19, %22
  %27 = phi ptr [ %21, %19 ], [ %26, %22 ]
  %28 = load ptr, ptr %27, align 8
  %29 = tail call i32 @_ZN4llvm8FastISel14getRegForValueEPKNS_5ValueE(ptr noundef nonnull align 8 dereferenceable(176) %0, ptr noundef %28) #21
  %.not = icmp eq i32 %29, 0
  br i1 %.not, label %49, label %30

30:                                               ; preds = %_ZNK4llvm4User10getOperandEj.exit
  %31 = load i32, ptr %16, align 4
  %32 = and i32 %31, 1073741824
  %.not.i.i16 = icmp eq i32 %32, 0
  br i1 %.not.i.i16, label %36, label %33

33:                                               ; preds = %30
  %34 = getelementptr inbounds i8, ptr %1, i64 -8
  %35 = load ptr, ptr %34, align 8
  br label %_ZNK4llvm4User10getOperandEj.exit17

36:                                               ; preds = %30
  %37 = and i32 %31, 134217727
  %38 = zext nneg i32 %37 to i64
  %39 = sub nsw i64 0, %38
  %40 = getelementptr inbounds %"class.llvm::Use", ptr %1, i64 %39
  br label %_ZNK4llvm4User10getOperandEj.exit17

_ZNK4llvm4User10getOperandEj.exit17:              ; preds = %33, %36
  %41 = phi ptr [ %35, %33 ], [ %40, %36 ]
  %42 = getelementptr inbounds nuw i8, ptr %41, i64 32
  %43 = load ptr, ptr %42, align 8
  %44 = tail call i32 @_ZN4llvm8FastISel14getRegForValueEPKNS_5ValueE(ptr noundef nonnull align 8 dereferenceable(176) %0, ptr noundef %43) #21
  %.not15 = icmp eq i32 %44, 0
  br i1 %.not15, label %49, label %45

45:                                               ; preds = %_ZNK4llvm4User10getOperandEj.exit17
  %46 = select i1 %12, ptr @_ZN4llvm7AArch6413GPR64RegClassE, ptr @_ZN4llvm7AArch6413GPR32RegClassE
  %47 = tail call i32 @_ZN4llvm8FastISel15fastEmitInst_rrEjPKNS_19TargetRegisterClassEjj(ptr noundef nonnull align 8 dereferenceable(176) %0, i32 noundef %.014, ptr noundef nonnull %46, i32 noundef %29, i32 noundef %44) #21
  %48 = tail call i32 @_ZN4llvm8FastISel16fastEmitInst_rrrEjPKNS_19TargetRegisterClassEjjj(ptr noundef nonnull align 8 dereferenceable(176) %0, i32 noundef %15, ptr noundef nonnull %46, i32 noundef %47, i32 noundef %44, i32 noundef %29) #21
  tail call void @_ZN4llvm8FastISel14updateValueMapEPKNS_5ValueENS_8RegisterEj(ptr noundef nonnull align 8 dereferenceable(176) %0, ptr noundef nonnull %1, i32 %48, i32 noundef 1) #21
  br label %49

49:                                               ; preds = %3, %_ZNK4llvm4User10getOperandEj.exit17, %_ZNK4llvm4User10getOperandEj.exit, %45
  %.0 = phi i1 [ true, %45 ], [ false, %_ZNK4llvm4User10getOperandEj.exit ], [ false, %_ZNK4llvm4User10getOperandEj.exit17 ], [ false, %3 ]
  ret i1 %.0
}